; Function Attrs: mustprogress nofree norecurse nosync nounwind willreturn memory(write, argmem: readwrite, inaccessiblemem: none) uwtable
define dso_local void @_ZN4Luau7CodeGen3X6418AssemblyBuilderX648placeRexENS1_11RegisterX64E(ptr noundef nonnull align 8 captures(none) dereferenceable(252) %0, i8 %1) local_unnamed_addr #5 align 2 {
  %3 = and i8 %1, 7
  %4 = icmp eq i8 %3, 4
  %5 = icmp eq i8 %3, 1
  %6 = icmp ugt i8 %1, 31
  %7 = and i1 %6, %5
  %8 = or i1 %4, %7
  %9 = select i1 %8, i8 8, i8 0
  %10 = lshr i8 %1, 6
  %11 = and i8 %10, 1
  %12 = or disjoint i8 %9, %11
  %.not = icmp eq i8 %12, 0
  br i1 %.not, label %18, label %13

13:                                               ; preds = %2
  %14 = or disjoint i8 %12, 64
  %15 = getelementptr inbounds nuw i8, ptr %0, i64 232
  %16 = load ptr, ptr %15, align 8, !tbaa !51
  %17 = getelementptr inbounds nuw i8, ptr %16, i64 1
  store ptr %17, ptr %15, align 8, !tbaa !51
  store i8 %14, ptr %16, align 1, !tbaa !13
  br label %18

18:                                               ; preds = %13, %2
  ret void
}